target datalayout = "e-m:e-p270:32:32-p271:32:32-p272:64:64-i64:64-i128:128-f80:128-n8:16:32:64-S128"
target triple = "x86_64-pc-linux-gnu"

%struct.Extra_BitMat_t_ = type { ptr, i32, i32, i32, i32, i32, i32, i32 }

; Function Attrs: nounwind uwtable
define void @Extra_BitMatrixInsert1(ptr noundef %0, i32 noundef %1, i32 noundef %2) #0 {
  %4 = alloca ptr, align 8
  %5 = alloca i32, align 4
  %6 = alloca i32, align 4
  store ptr %0, ptr %4, align 8
  store i32 %1, ptr %5, align 4
  store i32 %2, ptr %6, align 4
  %7 = load ptr, ptr %4, align 8
  %8 = getelementptr inbounds %struct.Extra_BitMat_t_, ptr %7, i32 0, i32 6
  %9 = load i32, ptr %8, align 4
  %10 = add nsw i32 %9, 1
  store i32 %10, ptr %8, align 4
  %11 = load i32, ptr %5, align 4
  %12 = load i32, ptr %6, align 4
  %13 = icmp slt i32 %11, %12
  br i1 %13, label %14, label %37

14:                                               ; preds = %3
  %15 = load i32, ptr %6, align 4
  %16 = load ptr, ptr %4, align 8
  %17 = getelementptr inbounds %struct.Extra_BitMat_t_, ptr %16, i32 0, i32 4
  %18 = load i32, ptr %17, align 4
  %19 = and i32 %15, %18
  %20 = shl i32 1, %19
  %21 = load ptr, ptr %4, align 8
  %22 = getelementptr inbounds %struct.Extra_BitMat_t_, ptr %21, i32 0, i32 0
  %23 = load ptr, ptr %22, align 8
  %24 = load i32, ptr %5, align 4
  %25 = sext i32 %24 to i64
  %26 = getelementptr inbounds ptr, ptr %23, i64 %25
  %27 = load ptr, ptr %26, align 8
  %28 = load i32, ptr %6, align 4
  %29 = load ptr, ptr %4, align 8
  %30 = getelementptr inbounds %struct.Extra_BitMat_t_, ptr %29, i32 0, i32 3
  %31 = load i32, ptr %30, align 8
  %32 = ashr i32 %28, %31
  %33 = sext i32 %32 to i64
  %34 = getelementptr inbounds i32, ptr %27, i64 %33
  %35 = load i32, ptr %34, align 4
  %36 = or i32 %35, %20
  store i32 %36, ptr %34, align 4
  br label %60

37:                                               ; preds = %3
  %38 = load i32, ptr %5, align 4
  %39 = load ptr, ptr %4, align 8
  %40 = getelementptr inbounds %struct.Extra_BitMat_t_, ptr %39, i32 0, i32 4
  %41 = load i32, ptr %40, align 4
  %42 = and i32 %38, %41
  %43 = shl i32 1, %42
  %44 = load ptr, ptr %4, align 8
  %45 = getelementptr inbounds %struct.Extra_BitMat_t_, ptr %44, i32 0, i32 0
  %46 = load ptr, ptr %45, align 8
  %47 = load i32, ptr %6, align 4
  %48 = sext i32 %47 to i64
  %49 = getelementptr inbounds ptr, ptr %46, i64 %48
  %50 = load ptr, ptr %49, align 8
  %51 = load i32, ptr %5, align 4
  %52 = load ptr, ptr %4, align 8
  %53 = getelementptr inbounds %struct.Extra_BitMat_t_, ptr %52, i32 0, i32 3
  %54 = load i32, ptr %53, align 8
  %55 = ashr i32 %51, %54
  %56 = sext i32 %55 to i64
  %57 = getelementptr inbounds i32, ptr %50, i64 %56
  %58 = load i32, ptr %57, align 4
  %59 = or i32 %58, %43
  store i32 %59, ptr %57, align 4
  br label %60

60:                                               ; preds = %37, %14
  ret void
}